target datalayout = "e-m:e-p270:32:32-p271:32:32-p272:64:64-i64:64-i128:128-f80:128-n8:16:32:64-S128"
target triple = "x86_64-pc-linux-gnu"

%struct.strbuf = type { i64, i64, ptr }
%struct.json_writer = type { %struct.strbuf, %struct.strbuf, i8 }

@.str.4 = private unnamed_addr constant [14 x i8] c"json-writer.c\00", align 1
@.str.18 = private unnamed_addr constant [44 x i8] c"json-writer: object: missing jw_end(): '%s'\00", align 1

; Function Attrs: nounwind uwtable
define internal void @assert_is_terminated(ptr noundef %0) #0 {
  %2 = alloca ptr, align 8
  store ptr %0, ptr %2, align 8, !tbaa !4
  %3 = load ptr, ptr %2, align 8, !tbaa !4
  %4 = getelementptr inbounds nuw %struct.json_writer, ptr %3, i32 0, i32 1
  %5 = getelementptr inbounds nuw %struct.strbuf, ptr %4, i32 0, i32 1
  %6 = load i64, ptr %5, align 8, !tbaa !24
  %7 = icmp ne i64 %6, 0
  br i1 %7, label %8, label %13

8:                                                ; preds = %1
  %9 = load ptr, ptr %2, align 8, !tbaa !4
  %10 = getelementptr inbounds nuw %struct.json_writer, ptr %9, i32 0, i32 0
  %11 = getelementptr inbounds nuw %struct.strbuf, ptr %10, i32 0, i32 2
  %12 = load ptr, ptr %11, align 8, !tbaa !26
  call void (ptr, i32, ptr, ...) @BUG_fl(ptr noundef @.str.4, i32 noundef 149, ptr noundef @.str.18, ptr noundef %12) #9
  unreachable

13:                                               ; preds = %1
  ret void
}

; Function Attrs: nounwind uwtable
define dso_local void @jw_object_sub_jw(ptr noundef %0, ptr noundef %1, ptr noundef %2) #0 {
  %4 = alloca ptr, align 8
  %5 = alloca ptr, align 8
  %6 = alloca ptr, align 8
  store ptr %0, ptr %4, align 8, !tbaa !4
  store ptr %1, ptr %5, align 8, !tbaa !12
  store ptr %2, ptr %6, align 8, !tbaa !4
  %7 = load ptr, ptr %6, align 8, !tbaa !4
  call void @assert_is_terminated(ptr noundef %7)
  %8 = load ptr, ptr %4, align 8, !tbaa !4
  %9 = load ptr, ptr %5, align 8, !tbaa !12
  call void @object_common(ptr noundef %8, ptr noundef %9)
  %10 = load ptr, ptr %4, align 8, !tbaa !4
  %11 = load ptr, ptr %6, align 8, !tbaa !4
  call void @append_sub_jw(ptr noundef %10, ptr noundef %11)
  ret void
}