; Function Attrs: nounwind uwtable
define dso_local void @jw_object_sub_jw(ptr noundef %0, ptr noundef %1, ptr noundef %2) local_unnamed_addr #3 {
  %4 = getelementptr inbounds nuw i8, ptr %2, i64 32
  %5 = load i64, ptr %4, align 8, !tbaa !14
  %.not.i = icmp eq i64 %5, 0
  br i1 %.not.i, label %assert_is_terminated.exit, label %6

6:                                                ; preds = %3
  %7 = getelementptr inbounds nuw i8, ptr %2, i64 16
  %8 = load ptr, ptr %7, align 8, !tbaa !20
  tail call void (ptr, i32, ptr, ...) @BUG_fl(ptr noundef nonnull @.str.4, i32 noundef 149, ptr noundef nonnull @.str.18, ptr noundef %8) #9
  unreachable

assert_is_terminated.exit:                        ; preds = %3
  tail call fastcc void @object_common(ptr noundef %0, ptr noundef %1)
  tail call fastcc void @append_sub_jw(ptr noundef %0, ptr noundef nonnull %2)
  ret void
}